target datalayout = "e-m:e-p270:32:32-p271:32:32-p272:64:64-i64:64-i128:128-f80:128-n8:16:32:64-S128"
target triple = "x86_64-pc-linux-gnu"

@proto_register_evs.ett = internal global [4 x ptr] [ptr @ett_evs, ptr @ett_evs_header, ptr @ett_evs_speech, ptr @ett_evs_voice_data], align 16
@.str.55 = private unnamed_addr constant [24 x i8] c"Enhanced Voice Services\00", align 1
@.str.56 = private unnamed_addr constant [4 x i8] c"EVS\00", align 1
@.str.57 = private unnamed_addr constant [4 x i8] c"evs\00", align 1
@proto_evs = internal global i32 0, align 4
@.str.58 = private unnamed_addr constant [21 x i8] c"dynamic.payload.type\00", align 1
@.str.59 = private unnamed_addr constant [8 x i8] c"hf_only\00", align 1
@.str.60 = private unnamed_addr constant [24 x i8] c"Header-Full format only\00", align 1
@.str.61 = private unnamed_addr constant [61 x i8] c"Decode payload assuming that Header-Full format only is used\00", align 1
@evs_hf_only = internal global i8 0, align 1
@evs_handle = internal global ptr null, align 8

; Function Attrs: null_pointer_is_valid sspstrong uwtable
define hidden void @proto_register_evs() #0 {
  %1 = alloca ptr, align 8
  call void @llvm.lifetime.start.p0(i64 8, ptr %1) #6
  %2 = call i32 @proto_register_protocol(ptr noundef @.str.55, ptr noundef @.str.56, ptr noundef @.str.57)
  store i32 %2, ptr @proto_evs, align 4
  %3 = load i32, ptr @proto_evs, align 4
  call void @proto_register_field_array(i32 noundef %3, ptr noundef @proto_register_evs.hf, i32 noundef 33)
  call void @proto_register_subtree_array(ptr noundef @proto_register_evs.ett, i32 noundef 4)
  %4 = load i32, ptr @proto_evs, align 4
  %5 = call ptr @prefs_register_protocol(i32 noundef %4, ptr noundef null)
  store ptr %5, ptr %1, align 8
  %6 = load ptr, ptr %1, align 8
  call void @prefs_register_obsolete_preference(ptr noundef %6, ptr noundef @.str.58)
  %7 = load ptr, ptr %1, align 8
  call void @prefs_register_bool_preference(ptr noundef %7, ptr noundef @.str.59, ptr noundef @.str.60, ptr noundef @.str.61, ptr noundef @evs_hf_only)
  %8 = load i32, ptr @proto_evs, align 4
  %9 = call ptr @register_dissector(ptr noundef @.str.57, ptr noundef @dissect_evs, i32 noundef %8)
  store ptr %9, ptr @evs_handle, align 8
  call void @llvm.lifetime.end.p0(i64 8, ptr %1) #6
  ret void
}