; Function Attrs: null_pointer_is_valid sspstrong uwtable
define hidden void @proto_register_evs() local_unnamed_addr #0 {
  %1 = tail call i32 @proto_register_protocol(ptr noundef nonnull @.str.55, ptr noundef nonnull @.str.56, ptr noundef nonnull @.str.57)
  store i32 %1, ptr @proto_evs, align 4
  tail call void @proto_register_field_array(i32 noundef %1, ptr noundef nonnull @proto_register_evs.hf, i32 noundef 33)
  tail call void @proto_register_subtree_array(ptr noundef nonnull @proto_register_evs.ett, i32 noundef 4)
  %2 = load i32, ptr @proto_evs, align 4
  %3 = tail call ptr @prefs_register_protocol(i32 noundef %2, ptr noundef null)
  tail call void @prefs_register_obsolete_preference(ptr noundef %3, ptr noundef nonnull @.str.58)
  tail call void @prefs_register_bool_preference(ptr noundef %3, ptr noundef nonnull @.str.59, ptr noundef nonnull @.str.60, ptr noundef nonnull @.str.61, ptr noundef nonnull @evs_hf_only)
  %4 = load i32, ptr @proto_evs, align 4
  %5 = tail call ptr @register_dissector(ptr noundef nonnull @.str.57, ptr noundef nonnull @dissect_evs, i32 noundef %4)
  store ptr %5, ptr @evs_handle, align 8
  ret void
}